; ModuleID = '9/1384.c'
source_filename = "9/1384.c"
target datalayout = "e-m:e-p270:32:32-p271:32:32-p272:64:64-i64:64-f80:128-n8:16:32:64-S128"
target triple = "x86_64-pc-linux-gnu"

%struct.Info = type { [10 x i8], i32 }

@.str = private unnamed_addr constant [3 x i8] c"%d\00", align 1
@.str.1 = private unnamed_addr constant [5 x i8] c"%s%d\00", align 1
@.str.2 = private unnamed_addr constant [4 x i8] c"%s\0A\00", align 1

; Function Attrs: noinline nounwind uwtable
define dso_local void @main() #0 {
  %1 = alloca i32, align 4
  %2 = alloca i32, align 4
  %3 = alloca i32, align 4
  %4 = alloca i32, align 4
  %5 = alloca %struct.Info, align 4
  %6 = alloca [100 x %struct.Info], align 16
  %7 = alloca [100 x %struct.Info], align 16
  %8 = call i32 (i8*, ...) @__isoc99_scanf(i8* getelementptr inbounds ([3 x i8], [3 x i8]* @.str, i64 0, i64 0), i32* %2)
  store i32 0, i32* %4, align 4
  store i32 0, i32* %1, align 4
  br label %9

9:                                                ; preds = %42, %0
  %10 = load i32, i32* %1, align 4
  %11 = load i32, i32* %2, align 4
  %12 = icmp slt i32 %10, %11
  br i1 %12, label %13, label %45

13:                                               ; preds = %9
  %14 = load i32, i32* %1, align 4
  %15 = sext i32 %14 to i64
  %16 = getelementptr inbounds [100 x %struct.Info], [100 x %struct.Info]* %6, i64 0, i64 %15
  %17 = getelementptr inbounds %struct.Info, %struct.Info* %16, i32 0, i32 0
  %18 = getelementptr inbounds [10 x i8], [10 x i8]* %17, i64 0, i64 0
  %19 = load i32, i32* %1, align 4
  %20 = sext i32 %19 to i64
  %21 = getelementptr inbounds [100 x %struct.Info], [100 x %struct.Info]* %6, i64 0, i64 %20
  %22 = getelementptr inbounds %struct.Info, %struct.Info* %21, i32 0, i32 1
  %23 = call i32 (i8*, ...) @__isoc99_scanf(i8* getelementptr inbounds ([5 x i8], [5 x i8]* @.str.1, i64 0, i64 0), i8* %18, i32* %22)
  %24 = load i32, i32* %1, align 4
  %25 = sext i32 %24 to i64
  %26 = getelementptr inbounds [100 x %struct.Info], [100 x %struct.Info]* %6, i64 0, i64 %25
  %27 = getelementptr inbounds %struct.Info, %struct.Info* %26, i32 0, i32 1
  %28 = load i32, i32* %27, align 4
  %29 = icmp sge i32 %28, 60
  br i1 %29, label %30, label %41

30:                                               ; preds = %13
  %31 = load i32, i32* %4, align 4
  %32 = sext i32 %31 to i64
  %33 = getelementptr inbounds [100 x %struct.Info], [100 x %struct.Info]* %7, i64 0, i64 %32
  %34 = load i32, i32* %1, align 4
  %35 = sext i32 %34 to i64
  %36 = getelementptr inbounds [100 x %struct.Info], [100 x %struct.Info]* %6, i64 0, i64 %35
  %37 = bitcast %struct.Info* %33 to i8*
  %38 = bitcast %struct.Info* %36 to i8*
  call void @llvm.memcpy.p0i8.p0i8.i64(i8* align 16 %37, i8* align 16 %38, i64 16, i1 false)
  %39 = load i32, i32* %4, align 4
  %40 = add nsw i32 %39, 1
  store i32 %40, i32* %4, align 4
  br label %41

41:                                               ; preds = %30, %13
  br label %42

42:                                               ; preds = %41
  %43 = load i32, i32* %1, align 4
  %44 = add nsw i32 %43, 1
  store i32 %44, i32* %1, align 4
  br label %9

45:                                               ; preds = %9
  store i32 0, i32* %1, align 4
  br label %46

46:                                               ; preds = %97, %45
  %47 = load i32, i32* %1, align 4
  %48 = load i32, i32* %4, align 4
  %49 = sub nsw i32 %48, 1
  %50 = icmp slt i32 %47, %49
  br i1 %50, label %51, label %100

51:                                               ; preds = %46
  store i32 1, i32* %3, align 4
  br label %52

52:                                               ; preds = %93, %51
  %53 = load i32, i32* %3, align 4
  %54 = load i32, i32* %4, align 4
  %55 = load i32, i32* %1, align 4
  %56 = sub nsw i32 %54, %55
  %57 = icmp slt i32 %53, %56
  br i1 %57, label %58, label %96

58:                                               ; preds = %52
  %59 = load i32, i32* %3, align 4
  %60 = sub nsw i32 %59, 1
  %61 = sext i32 %60 to i64
  %62 = getelementptr inbounds [100 x %struct.Info], [100 x %struct.Info]* %7, i64 0, i64 %61
  %63 = getelementptr inbounds %struct.Info, %struct.Info* %62, i32 0, i32 1
  %64 = load i32, i32* %63, align 4
  %65 = load i32, i32* %3, align 4
  %66 = sext i32 %65 to i64
  %67 = getelementptr inbounds [100 x %struct.Info], [100 x %struct.Info]* %7, i64 0, i64 %66
  %68 = getelementptr inbounds %struct.Info, %struct.Info* %67, i32 0, i32 1
  %69 = load i32, i32* %68, align 4
  %70 = icmp slt i32 %64, %69
  br i1 %70, label %71, label %92

71:                                               ; preds = %58
  %72 = load i32, i32* %3, align 4
  %73 = sub nsw i32 %72, 1
  %74 = sext i32 %73 to i64
  %75 = getelementptr inbounds [100 x %struct.Info], [100 x %struct.Info]* %7, i64 0, i64 %74
  %76 = bitcast %struct.Info* %5 to i8*
  %77 = bitcast %struct.Info* %75 to i8*
  call void @llvm.memcpy.p0i8.p0i8.i64(i8* align 4 %76, i8* align 16 %77, i64 16, i1 false)
  %78 = load i32, i32* %3, align 4
  %79 = sub nsw i32 %78, 1
  %80 = sext i32 %79 to i64
  %81 = getelementptr inbounds [100 x %struct.Info], [100 x %struct.Info]* %7, i64 0, i64 %80
  %82 = load i32, i32* %3, align 4
  %83 = sext i32 %82 to i64
  %84 = getelementptr inbounds [100 x %struct.Info], [100 x %struct.Info]* %7, i64 0, i64 %83
  %85 = bitcast %struct.Info* %81 to i8*
  %86 = bitcast %struct.Info* %84 to i8*
  call void @llvm.memcpy.p0i8.p0i8.i64(i8* align 16 %85, i8* align 16 %86, i64 16, i1 false)
  %87 = load i32, i32* %3, align 4
  %88 = sext i32 %87 to i64
  %89 = getelementptr inbounds [100 x %struct.Info], [100 x %struct.Info]* %7, i64 0, i64 %88
  %90 = bitcast %struct.Info* %89 to i8*
  %91 = bitcast %struct.Info* %5 to i8*
  call void @llvm.memcpy.p0i8.p0i8.i64(i8* align 16 %90, i8* align 4 %91, i64 16, i1 false)
  br label %92

92:                                               ; preds = %71, %58
  br label %93

93:                                               ; preds = %92
  %94 = load i32, i32* %3, align 4
  %95 = add nsw i32 %94, 1
  store i32 %95, i32* %3, align 4
  br label %52

96:                                               ; preds = %52
  br label %97

97:                                               ; preds = %96
  %98 = load i32, i32* %1, align 4
  %99 = add nsw i32 %98, 1
  store i32 %99, i32* %1, align 4
  br label %46

100:                                              ; preds = %46
  store i32 0, i32* %1, align 4
  br label %101

101:                                              ; preds = %112, %100
  %102 = load i32, i32* %1, align 4
  %103 = load i32, i32* %4, align 4
  %104 = icmp slt i32 %102, %103
  br i1 %104, label %105, label %115

105:                                              ; preds = %101
  %106 = load i32, i32* %1, align 4
  %107 = sext i32 %106 to i64
  %108 = getelementptr inbounds [100 x %struct.Info], [100 x %struct.Info]* %7, i64 0, i64 %107
  %109 = getelementptr inbounds %struct.Info, %struct.Info* %108, i32 0, i32 0
  %110 = getelementptr inbounds [10 x i8], [10 x i8]* %109, i64 0, i64 0
  %111 = call i32 (i8*, ...) @printf(i8* getelementptr inbounds ([4 x i8], [4 x i8]* @.str.2, i64 0, i64 0), i8* %110)
  br label %112

112:                                              ; preds = %105
  %113 = load i32, i32* %1, align 4
  %114 = add nsw i32 %113, 1
  store i32 %114, i32* %1, align 4
  br label %101

115:                                              ; preds = %101
  store i32 0, i32* %1, align 4
  br label %116

116:                                              ; preds = %135, %115
  %117 = load i32, i32* %1, align 4
  %118 = load i32, i32* %2, align 4
  %119 = icmp slt i32 %117, %118
  br i1 %119, label %120, label %138

120:                                              ; preds = %116
  %121 = load i32, i32* %1, align 4
  %122 = sext i32 %121 to i64
  %123 = getelementptr inbounds [100 x %struct.Info], [100 x %struct.Info]* %6, i64 0, i64 %122
  %124 = getelementptr inbounds %struct.Info, %struct.Info* %123, i32 0, i32 1
  %125 = load i32, i32* %124, align 4
  %126 = icmp slt i32 %125, 60
  br i1 %126, label %127, label %134

127:                                              ; preds = %120
  %128 = load i32, i32* %1, align 4
  %129 = sext i32 %128 to i64
  %130 = getelementptr inbounds [100 x %struct.Info], [100 x %struct.Info]* %6, i64 0, i64 %129
  %131 = getelementptr inbounds %struct.Info, %struct.Info* %130, i32 0, i32 0
  %132 = getelementptr inbounds [10 x i8], [10 x i8]* %131, i64 0, i64 0
  %133 = call i32 (i8*, ...) @printf(i8* getelementptr inbounds ([4 x i8], [4 x i8]* @.str.2, i64 0, i64 0), i8* %132)
  br label %134

134:                                              ; preds = %127, %120
  br label %135

135:                                              ; preds = %134
  %136 = load i32, i32* %1, align 4
  %137 = add nsw i32 %136, 1
  store i32 %137, i32* %1, align 4
  br label %116

138:                                              ; preds = %116
  ret void
}

declare dso_local i32 @__isoc99_scanf(i8*, ...) #1

; Function Attrs: argmemonly nounwind willreturn
declare void @llvm.memcpy.p0i8.p0i8.i64(i8* noalias nocapture writeonly, i8* noalias nocapture readonly, i64, i1 immarg) #2

declare dso_local i32 @printf(i8*, ...) #1


!llvm.module.flags = !{!0}
!llvm.ident = !{!1}

!0 = !{i32 1, !"wchar_size", i32 4}
!1 = !{!"clang version 10.0.0-4ubuntu1 "}
